; Function Attrs: nounwind uwtable
define internal i32 @test_cmp_create_certconf() #0 {
  %1 = tail call fastcc ptr @set_up(ptr noundef nonnull @.str.29)
  %2 = icmp eq ptr %1, null
  br i1 %2, label %21, label %3

3:                                                ; preds = %0
  %4 = getelementptr inbounds nuw i8, ptr %1, i64 24
  store i32 0, ptr %4, align 8, !tbaa !30
  %5 = getelementptr inbounds nuw i8, ptr %1, i64 40
  store i32 1, ptr %5, align 8, !tbaa !24
  %6 = getelementptr inbounds nuw i8, ptr %1, i64 8
  %7 = load ptr, ptr %6, align 8, !tbaa !25
  %8 = load ptr, ptr @cert, align 8, !tbaa !9
  %9 = tail call ptr @X509_dup(ptr noundef %8) #4
  %10 = tail call i32 @ossl_cmp_ctx_set0_newCert(ptr noundef %7, ptr noundef %9) #4
  %11 = icmp ne i32 %10, 0
  %12 = zext i1 %11 to i32
  %13 = tail call i32 @test_true(ptr noundef nonnull @.str.14, i32 noundef 290, ptr noundef nonnull @.str.61, i32 noundef %12) #4
  %.not = icmp eq i32 %13, 0
  br i1 %.not, label %.sink.split, label %14

14:                                               ; preds = %3
  %15 = tail call fastcc i32 @execute_certconf_create_test(ptr noundef %1)
  br label %.sink.split

.sink.split:                                      ; preds = %3, %14
  %.010.ph = phi i32 [ %15, %14 ], [ 0, %3 ]
  %16 = load ptr, ptr %6, align 8, !tbaa !25
  tail call void @OSSL_CMP_CTX_free(ptr noundef %16) #4
  %17 = getelementptr inbounds nuw i8, ptr %1, i64 32
  %18 = load ptr, ptr %17, align 8, !tbaa !26
  tail call void @OSSL_CMP_MSG_free(ptr noundef %18) #4
  %19 = getelementptr inbounds nuw i8, ptr %1, i64 48
  %20 = load ptr, ptr %19, align 8, !tbaa !27
  tail call void @OSSL_CMP_PKISI_free(ptr noundef %20) #4
  tail call void @CRYPTO_free(ptr noundef nonnull %1, ptr noundef nonnull @.str.14, i32 noundef 43) #4
  br label %21

21:                                               ; preds = %.sink.split, %0
  %.010 = phi i32 [ 0, %0 ], [ %.010.ph, %.sink.split ]
  ret i32 %.010
}